target datalayout = "e-m:e-p270:32:32-p271:32:32-p272:64:64-i64:64-i128:128-f80:128-n8:16:32:64-S128"
target triple = "x86_64-pc-linux-gnu"

%struct._AwtScreenData = type { i32, i64, i64, i64, ptr, ptr }
%struct.XVisualInfo = type { ptr, i64, i32, i32, i32, i64, i64, i64, i32, i32 }
%struct._AwtGraphicsConfigData = type { i32, i64, %struct.XVisualInfo, i32, ptr, ptr, ptr, i64, i32, i32, ptr, i32, ptr, ptr, i32, %struct.XRenderPictFormat }
%struct.XRenderPictFormat = type { i64, i32, i32, %struct.XRenderDirectFormat, i64 }
%struct.XRenderDirectFormat = type { i16, i16, i16, i16, i16, i16, i16, i16 }

@x11Screens = hidden global ptr null, align 8
@jvm = external global ptr, align 8

; Function Attrs: nounwind uwtable
define internal void @ensureConfigsInited(ptr noundef %0, i32 noundef %1) #0 {
  %3 = alloca ptr, align 8
  %4 = alloca i32, align 4
  store ptr %0, ptr %3, align 8
  store i32 %1, ptr %4, align 4
  %5 = load ptr, ptr @x11Screens, align 8
  %6 = load i32, ptr %4, align 4
  %7 = sext i32 %6 to i64
  %8 = getelementptr inbounds %struct._AwtScreenData, ptr %5, i64 %7
  %9 = getelementptr inbounds %struct._AwtScreenData, ptr %8, i32 0, i32 0
  %10 = load i32, ptr %9, align 8
  %11 = icmp eq i32 %10, 0
  br i1 %11, label %12, label %25

12:                                               ; preds = %2
  %13 = load ptr, ptr %3, align 8
  %14 = icmp eq ptr %13, null
  br i1 %14, label %15, label %18

15:                                               ; preds = %12
  %16 = load ptr, ptr @jvm, align 8
  %17 = call ptr @JNU_GetEnv(ptr noundef %16, i32 noundef 65538)
  store ptr %17, ptr %3, align 8
  br label %18

18:                                               ; preds = %15, %12
  %19 = load ptr, ptr %3, align 8
  %20 = load i32, ptr %4, align 4
  %21 = load ptr, ptr @x11Screens, align 8
  %22 = load i32, ptr %4, align 4
  %23 = sext i32 %22 to i64
  %24 = getelementptr inbounds %struct._AwtScreenData, ptr %21, i64 %23
  call void @getAllConfigs(ptr noundef %19, i32 noundef %20, ptr noundef %24)
  br label %25

25:                                               ; preds = %18, %2
  ret void
}

; Function Attrs: nounwind uwtable
define i32 @Java_sun_awt_X11GraphicsDevice_getConfigVisualId(ptr noundef %0, ptr noundef %1, i32 noundef %2, i32 noundef %3) #0 {
  %5 = alloca ptr, align 8
  %6 = alloca ptr, align 8
  %7 = alloca i32, align 4
  %8 = alloca i32, align 4
  %9 = alloca i32, align 4
  store ptr %0, ptr %5, align 8
  store ptr %1, ptr %6, align 8
  store i32 %2, ptr %7, align 4
  store i32 %3, ptr %8, align 4
  %10 = load ptr, ptr %5, align 8
  %11 = load i32, ptr %8, align 4
  call void @ensureConfigsInited(ptr noundef %10, i32 noundef %11)
  %12 = load i32, ptr %7, align 4
  %13 = icmp eq i32 %12, 0
  br i1 %13, label %14, label %21

14:                                               ; preds = %4
  %15 = load ptr, ptr @x11Screens, align 8
  %16 = load i32, ptr %8, align 4
  %17 = sext i32 %16 to i64
  %18 = getelementptr inbounds %struct._AwtScreenData, ptr %15, i64 %17
  %19 = getelementptr inbounds %struct._AwtScreenData, ptr %18, i32 0, i32 4
  %20 = load ptr, ptr %19, align 8
  br label %32

21:                                               ; preds = %4
  %22 = load ptr, ptr @x11Screens, align 8
  %23 = load i32, ptr %8, align 4
  %24 = sext i32 %23 to i64
  %25 = getelementptr inbounds %struct._AwtScreenData, ptr %22, i64 %24
  %26 = getelementptr inbounds %struct._AwtScreenData, ptr %25, i32 0, i32 5
  %27 = load ptr, ptr %26, align 8
  %28 = load i32, ptr %7, align 4
  %29 = sext i32 %28 to i64
  %30 = getelementptr inbounds ptr, ptr %27, i64 %29
  %31 = load ptr, ptr %30, align 8
  br label %32

32:                                               ; preds = %21, %14
  %33 = phi ptr [ %20, %14 ], [ %31, %21 ]
  %34 = getelementptr inbounds %struct._AwtGraphicsConfigData, ptr %33, i32 0, i32 2
  %35 = getelementptr inbounds %struct.XVisualInfo, ptr %34, i32 0, i32 1
  %36 = load i64, ptr %35, align 8
  %37 = trunc i64 %36 to i32
  store i32 %37, ptr %9, align 4
  %38 = load i32, ptr %9, align 4
  ret i32 %38
}